target datalayout = "e-m:e-p270:32:32-p271:32:32-p272:64:64-i64:64-i128:128-f80:128-n8:16:32:64-S128"
target triple = "x86_64-pc-linux-gnu"

%struct.FunctionCallInfoBaseData = type { ptr, ptr, ptr, i32, i8, i16, [0 x %struct.NullableDatum] }
%struct.NullableDatum = type { i64, i8 }

@.str.2 = private unnamed_addr constant [18 x i8] c"multirangetypes.c\00", align 1
@.str.14 = private unnamed_addr constant [50 x i8] c"range_agg_transfn called in non-aggregate context\00", align 1
@__func__.range_agg_transfn = private unnamed_addr constant [18 x i8] c"range_agg_transfn\00", align 1
@.str.15 = private unnamed_addr constant [38 x i8] c"range_agg must be called with a range\00", align 1

; Function Attrs: inlinehint nounwind uwtable
define internal i64 @PointerGetDatum(ptr noundef %0) #2 {
  %2 = alloca ptr, align 8
  store ptr %0, ptr %2, align 8
  %3 = load ptr, ptr %2, align 8
  %4 = ptrtoint ptr %3 to i64
  ret i64 %4
}

; Function Attrs: inlinehint nounwind uwtable
define internal ptr @DatumGetPointer(i64 noundef %0) #2 {
  %2 = alloca i64, align 8
  store i64 %0, ptr %2, align 8
  %3 = load i64, ptr %2, align 8
  %4 = inttoptr i64 %3 to ptr
  ret ptr %4
}

; Function Attrs: nounwind uwtable
define dso_local i64 @range_agg_transfn(ptr noundef %0) #0 {
  %2 = alloca ptr, align 8
  %3 = alloca ptr, align 8
  %4 = alloca i32, align 4
  %5 = alloca ptr, align 8
  store ptr %0, ptr %2, align 8
  call void @llvm.lifetime.start.p0(i64 8, ptr %3) #9
  call void @llvm.lifetime.start.p0(i64 4, ptr %4) #9
  call void @llvm.lifetime.start.p0(i64 8, ptr %5) #9
  %6 = load ptr, ptr %2, align 8
  %7 = call i32 @AggCheckCallContext(ptr noundef %6, ptr noundef %3)
  %8 = icmp ne i32 %7, 0
  br i1 %8, label %20, label %9

9:                                                ; preds = %1
  br label %10

10:                                               ; preds = %9
  br i1 true, label %11, label %13

11:                                               ; preds = %10
  %12 = call zeroext i1 @errstart_cold(i32 noundef 21, ptr noundef null) #11
  br i1 %12, label %15, label %17

13:                                               ; preds = %10
  %14 = call zeroext i1 @errstart(i32 noundef 21, ptr noundef null)
  br i1 %14, label %15, label %17

15:                                               ; preds = %13, %11
  %16 = call i32 (ptr, ...) @errmsg_internal(ptr noundef @.str.14)
  call void @errfinish(ptr noundef @.str.2, i32 noundef 1347, ptr noundef @__func__.range_agg_transfn)
  br label %17

17:                                               ; preds = %15, %13, %11
  unreachable

18:                                               ; No predecessors!
  br label %19

19:                                               ; preds = %18
  br label %20

20:                                               ; preds = %19, %1
  %21 = load ptr, ptr %2, align 8
  %22 = getelementptr inbounds nuw %struct.FunctionCallInfoBaseData, ptr %21, i32 0, i32 0
  %23 = load ptr, ptr %22, align 8
  %24 = call i32 @get_fn_expr_argtype(ptr noundef %23, i32 noundef 1)
  store i32 %24, ptr %4, align 4
  %25 = load i32, ptr %4, align 4
  %26 = call zeroext i1 @type_is_range(i32 noundef %25)
  br i1 %26, label %38, label %27

27:                                               ; preds = %20
  br label %28

28:                                               ; preds = %27
  br i1 true, label %29, label %31

29:                                               ; preds = %28
  %30 = call zeroext i1 @errstart_cold(i32 noundef 21, ptr noundef null) #11
  br i1 %30, label %33, label %35

31:                                               ; preds = %28
  %32 = call zeroext i1 @errstart(i32 noundef 21, ptr noundef null)
  br i1 %32, label %33, label %35

33:                                               ; preds = %31, %29
  %34 = call i32 (ptr, ...) @errmsg_internal(ptr noundef @.str.15)
  call void @errfinish(ptr noundef @.str.2, i32 noundef 1351, ptr noundef @__func__.range_agg_transfn)
  br label %35

35:                                               ; preds = %33, %31, %29
  unreachable

36:                                               ; No predecessors!
  br label %37

37:                                               ; preds = %36
  br label %38

38:                                               ; preds = %37, %20
  %39 = load ptr, ptr %2, align 8
  %40 = getelementptr inbounds nuw %struct.FunctionCallInfoBaseData, ptr %39, i32 0, i32 6
  %41 = getelementptr inbounds [0 x %struct.NullableDatum], ptr %40, i64 0, i64 0
  %42 = getelementptr inbounds nuw %struct.NullableDatum, ptr %41, i32 0, i32 1
  %43 = load i8, ptr %42, align 8, !range !16, !noundef !17
  %44 = trunc i8 %43 to i1
  br i1 %44, label %45, label %49

45:                                               ; preds = %38
  %46 = load i32, ptr %4, align 4
  %47 = load ptr, ptr %3, align 8
  %48 = call ptr @initArrayResult(i32 noundef %46, ptr noundef %47, i1 noundef zeroext false)
  store ptr %48, ptr %5, align 8
  br label %56

49:                                               ; preds = %38
  %50 = load ptr, ptr %2, align 8
  %51 = getelementptr inbounds nuw %struct.FunctionCallInfoBaseData, ptr %50, i32 0, i32 6
  %52 = getelementptr inbounds [0 x %struct.NullableDatum], ptr %51, i64 0, i64 0
  %53 = getelementptr inbounds nuw %struct.NullableDatum, ptr %52, i32 0, i32 0
  %54 = load i64, ptr %53, align 8
  %55 = call ptr @DatumGetPointer(i64 noundef %54)
  store ptr %55, ptr %5, align 8
  br label %56

56:                                               ; preds = %49, %45
  %57 = load ptr, ptr %2, align 8
  %58 = getelementptr inbounds nuw %struct.FunctionCallInfoBaseData, ptr %57, i32 0, i32 6
  %59 = getelementptr inbounds [0 x %struct.NullableDatum], ptr %58, i64 0, i64 1
  %60 = getelementptr inbounds nuw %struct.NullableDatum, ptr %59, i32 0, i32 1
  %61 = load i8, ptr %60, align 8, !range !16, !noundef !17
  %62 = trunc i8 %61 to i1
  br i1 %62, label %73, label %63

63:                                               ; preds = %56
  %64 = load ptr, ptr %5, align 8
  %65 = load ptr, ptr %2, align 8
  %66 = getelementptr inbounds nuw %struct.FunctionCallInfoBaseData, ptr %65, i32 0, i32 6
  %67 = getelementptr inbounds [0 x %struct.NullableDatum], ptr %66, i64 0, i64 1
  %68 = getelementptr inbounds nuw %struct.NullableDatum, ptr %67, i32 0, i32 0
  %69 = load i64, ptr %68, align 8
  %70 = load i32, ptr %4, align 4
  %71 = load ptr, ptr %3, align 8
  %72 = call ptr @accumArrayResult(ptr noundef %64, i64 noundef %69, i1 noundef zeroext false, i32 noundef %70, ptr noundef %71)
  br label %73

73:                                               ; preds = %63, %56
  %74 = load ptr, ptr %5, align 8
  %75 = call i64 @PointerGetDatum(ptr noundef %74)
  call void @llvm.lifetime.end.p0(i64 8, ptr %5) #9
  call void @llvm.lifetime.end.p0(i64 4, ptr %4) #9
  call void @llvm.lifetime.end.p0(i64 8, ptr %3) #9
  ret i64 %75
}