; Function Attrs: nounwind uwtable
define dso_local i64 @range_agg_transfn(ptr noundef %0) local_unnamed_addr #0 {
  %2 = alloca ptr, align 8
  call void @llvm.lifetime.start.p0(i64 8, ptr nonnull %2) #11
  %3 = call i32 @AggCheckCallContext(ptr noundef %0, ptr noundef nonnull %2) #11
  %.not = icmp eq i32 %3, 0
  br i1 %.not, label %4, label %7

4:                                                ; preds = %1
  %5 = call zeroext i1 @errstart_cold(i32 noundef 21, ptr noundef null) #13
  call void @llvm.assume(i1 %5)
  %6 = call i32 (ptr, ...) @errmsg_internal(ptr noundef nonnull @.str.14) #11
  call void @errfinish(ptr noundef nonnull @.str.2, i32 noundef 1347, ptr noundef nonnull @__func__.range_agg_transfn) #11
  unreachable

7:                                                ; preds = %1
  %8 = load ptr, ptr %0, align 8
  %9 = call i32 @get_fn_expr_argtype(ptr noundef %8, i32 noundef 1) #11
  %10 = call zeroext i1 @type_is_range(i32 noundef %9) #11
  br i1 %10, label %14, label %11

11:                                               ; preds = %7
  %12 = call zeroext i1 @errstart_cold(i32 noundef 21, ptr noundef null) #13
  call void @llvm.assume(i1 %12)
  %13 = call i32 (ptr, ...) @errmsg_internal(ptr noundef nonnull @.str.15) #11
  call void @errfinish(ptr noundef nonnull @.str.2, i32 noundef 1351, ptr noundef nonnull @__func__.range_agg_transfn) #11
  unreachable

14:                                               ; preds = %7
  %15 = getelementptr inbounds nuw i8, ptr %0, i64 40
  %16 = load i8, ptr %15, align 8, !range !22, !noundef !23
  %17 = trunc nuw i8 %16 to i1
  br i1 %17, label %18, label %21

18:                                               ; preds = %14
  %19 = load ptr, ptr %2, align 8
  %20 = call ptr @initArrayResult(i32 noundef %9, ptr noundef %19, i1 noundef zeroext false) #11
  br label %25

21:                                               ; preds = %14
  %22 = getelementptr inbounds nuw i8, ptr %0, i64 32
  %23 = load i64, ptr %22, align 8
  %24 = inttoptr i64 %23 to ptr
  br label %25

25:                                               ; preds = %21, %18
  %.0 = phi ptr [ %20, %18 ], [ %24, %21 ]
  %26 = getelementptr inbounds nuw i8, ptr %0, i64 56
  %27 = load i8, ptr %26, align 8, !range !22, !noundef !23
  %28 = trunc nuw i8 %27 to i1
  br i1 %28, label %34, label %29

29:                                               ; preds = %25
  %30 = getelementptr inbounds nuw i8, ptr %0, i64 48
  %31 = load i64, ptr %30, align 8
  %32 = load ptr, ptr %2, align 8
  %33 = call ptr @accumArrayResult(ptr noundef %.0, i64 noundef %31, i1 noundef zeroext false, i32 noundef %9, ptr noundef %32) #11
  br label %34

34:                                               ; preds = %29, %25
  %35 = ptrtoint ptr %.0 to i64
  call void @llvm.lifetime.end.p0(i64 8, ptr nonnull %2) #11
  ret i64 %35
}